Certificate:
    Data:
        Version: 3 (0x2)
        Serial Number: 1 (0x1)
        Signature Algorithm: sha1WithRSAEncryption
        Issuer: CN=sip.securekingdom.com, ST=New Taipei, C=TW/emailAddress=gordon@gentrice.net, O=sip.securekingdom.com
        Validity
            Not Before: Jul  6 10:41:37 2012 GMT
            Not After : Jul  6 10:41:37 2013 GMT
        Subject: C=TW, ST=New Taipei, O=sip.securekingdom.com, OU=sip.securekingdom.com, CN=sip.securekingdom.com/emailAddress=gordon@gentrice.net
        Subject Public Key Info:
            Public Key Algorithm: rsaEncryption
            RSA Public Key: (512 bit)
                Modulus (512 bit):
                    00:a1:f3:ef:62:fc:20:dd:bc:29:97:e0:c3:16:d8:
                    6d:27:7c:6d:31:64:ca:4f:b4:93:d6:e1:9c:05:e6:
                    d0:6b:00:24:25:a6:48:d6:77:ed:4d:f4:d6:89:b5:
                    40:58:2b:05:27:37:b7:90:14:de:b2:8d:1c:39:3a:
                    51:b3:f8:db:bb
                Exponent: 65537 (0x10001)
        X509v3 extensions:
            X509v3 Basic Constraints: 
                CA:FALSE
    Signature Algorithm: sha1WithRSAEncryption
        b2:b4:34:9e:95:c4:54:93:3b:72:db:78:41:ba:17:e6:69:a1:
        5d:f2:6e:2a:a9:ff:0e:d1:9d:16:0d:4a:c2:02:eb:01:ce:bb:
        ea:37:1a:03:e7:3a:a0:be:d3:70:5e:11:ce:08:f4:6d:3e:f0:
        e7:36:e7:8a:b2:a5:79:08:04:86:b7:80:86:61:10:e1:2c:61:
        30:87:6e:ae:2a:08:e4:63:af:ed:fd:8e:ad:d9:92:ec:28:de:
        d6:dd:76:e8:c0:3f:eb:ee:7d:a5:bf:55:c3:b6:8a:65:b9:bc:
        e3:02:81:b6:ea:d8:a5:25:94:ac:79:1e:e5:52:38:db:b5:60:
        a4:15:12:df:13:dd:a1:55:c8:b2:b1:38:88:17:1a:c3:24:2e:
        c5:36:d8:73:70:45:11:65:99:71:d6:4e:d5:a1:fd:55:d7:f0:
        d8:76:8a:42:c6:fb:e6:6a:82:01:d9:a4:30:5a:4b:6e:ba:bc:
        8e:33:ba:42:99:3a:08:a4:d8:09:4e:df:0a:e8:a5:c5:32:a9:
        d4:47:d8:86:0b:77:5e:65:82:54:e2:77:82:01:9a:4e:2b:51:
        9b:4b:3f:59:2c:00:60:93:a3:c1:71:1f:bc:a2:af:2e:34:ea:
        e9:40:3f:6b:ea:b6:2f:4c:80:20:ee:7a:8f:7a:6e:63:29:59:
        35:39:7c:11
-----BEGIN CERTIFICATE-----
MIIC7jCCAdagAwIBAgIBATANBgkqhkiG9w0BAQUFADCBhjEeMBwGA1UEAxMVc2lw
LnNlY3VyZWtpbmdkb20uY29tMRMwEQYDVQQIEwpOZXcgVGFpcGVpMQswCQYDVQQG
EwJUVzEiMCAGCSqGSIb3DQEJARYTZ29yZG9uQGdlbnRyaWNlLm5ldDEeMBwGA1UE
ChMVc2lwLnNlY3VyZWtpbmdkb20uY29tMB4XDTEyMDcwNjEwNDEzN1oXDTEzMDcw
NjEwNDEzN1owgaYxCzAJBgNVBAYTAlRXMRMwEQYDVQQIEwpOZXcgVGFpcGVpMR4w
HAYDVQQKExVzaXAuc2VjdXJla2luZ2RvbS5jb20xHjAcBgNVBAsTFXNpcC5zZWN1
cmVraW5nZG9tLmNvbTEeMBwGA1UEAxMVc2lwLnNlY3VyZWtpbmdkb20uY29tMSIw
IAYJKoZIhvcNAQkBFhNnb3Jkb25AZ2VudHJpY2UubmV0MFwwDQYJKoZIhvcNAQEB
BQADSwAwSAJBAKHz72L8IN28KZfgwxbYbSd8bTFkyk+0k9bhnAXm0GsAJCWmSNZ3
7U301om1QFgrBSc3t5AU3rKNHDk6UbP427sCAwEAAaMNMAswCQYDVR0TBAIwADAN
BgkqhkiG9w0BAQUFAAOCAQEAsrQ0npXEVJM7ctt4QboX5mmhXfJuKqn/DtGdFg1K
wgLrAc676jcaA+c6oL7TcF4Rzgj0bT7w5zbnirKleQgEhreAhmEQ4SxhMIdurioI
5GOv7f2OrdmS7Cje1t126MA/6+59pb9Vw7aKZbm84wKBturYpSWUrHke5VI427Vg
pBUS3xPdoVXIsrE4iBcawyQuxTbYc3BFEWWZcdZO1aH9Vdfw2HaKQsb75mqCAdmk
MFpLbrq8jjO6Qpk6CKTYCU7fCuilxTKp1EfYhgt3XmWCVOJ3ggGaTitRm0s/WSwA
YJOjwXEfvKKvLjTq6UA/a+q2L0yAIO56j3puYylZNTl8EQ==
-----END CERTIFICATE-----
