Certificate:
    Data:
        Version: 3 (0x2)
        Serial Number: 1 (0x1)
        Signature Algorithm: sha1WithRSAEncryption
        Issuer: CN=Your_NAME, ST=Your_STATE, C=CO/emailAddress=YOUR_EMAIL, O=YOUR_ORG_NAME
        Validity
            Not Before: May 16 06:16:06 2012 GMT
            Not After : May 16 06:16:06 2013 GMT
        Subject: C=XY, ST=Some State, O=My Large Organization Name, OU=My Subunit of Large Organization, CN=somename.somewhere.com/emailAddress=root@somename.somewhere.com
        Subject Public Key Info:
            Public Key Algorithm: rsaEncryption
            RSA Public Key: (512 bit)
                Modulus (512 bit):
                    00:a8:ce:3d:2f:48:56:d8:32:02:1e:d0:3d:8b:37:
                    d5:d0:38:c1:f1:0a:9c:44:f5:bf:f3:04:d4:18:25:
                    80:f6:b3:0d:cc:87:69:b7:f3:fd:e2:bf:78:e3:e9:
                    4d:bc:15:49:0c:fa:e3:ff:4a:ab:80:5c:48:7e:be:
                    4c:d6:1b:97:41
                Exponent: 65537 (0x10001)
        X509v3 extensions:
            X509v3 Basic Constraints: 
                CA:FALSE
    Signature Algorithm: sha1WithRSAEncryption
        69:f9:ab:26:01:56:dd:93:98:df:bd:a7:1d:2e:55:b4:99:ec:
        c7:94:74:7c:75:d4:3d:f9:e0:cc:48:ea:14:47:a2:31:67:a7:
        62:6e:50:e7:7a:fa:f5:9d:f8:dc:d8:b3:37:5e:d4:bc:14:2e:
        0b:0b:31:01:b1:72:49:3a:d2:08:f9:19:70:aa:d9:20:40:65:
        6d:17:dd:7b:11:24:d7:b4:cb:de:4f:af:61:34:40:f0:ed:a5:
        62:be:be:4a:28:36:c3:f5:a5:07:f2:17:6d:2c:f0:82:04:c1:
        b0:b4:aa:2b:72:c7:91:41:2e:28:53:e4:8b:7b:73:05:5b:dd:
        e5:0b
-----BEGIN CERTIFICATE-----
MIICaDCCAdGgAwIBAgIBATANBgkqhkiG9w0BAQUFADBpMRIwEAYDVQQDFAlZb3Vy
X05BTUUxEzARBgNVBAgUCllvdXJfU1RBVEUxCzAJBgNVBAYTAkNPMRkwFwYJKoZI
hvcNAQkBFgpZT1VSX0VNQUlMMRYwFAYDVQQKFA1ZT1VSX09SR19OQU1FMB4XDTEy
MDUxNjA2MTYwNloXDTEzMDUxNjA2MTYwNlowgb8xCzAJBgNVBAYTAlhZMRMwEQYD
VQQIEwpTb21lIFN0YXRlMSMwIQYDVQQKExpNeSBMYXJnZSBPcmdhbml6YXRpb24g
TmFtZTEpMCcGA1UECxMgTXkgU3VidW5pdCBvZiBMYXJnZSBPcmdhbml6YXRpb24x
HzAdBgNVBAMTFnNvbWVuYW1lLnNvbWV3aGVyZS5jb20xKjAoBgkqhkiG9w0BCQEW
G3Jvb3RAc29tZW5hbWUuc29tZXdoZXJlLmNvbTBcMA0GCSqGSIb3DQEBAQUAA0sA
MEgCQQCozj0vSFbYMgIe0D2LN9XQOMHxCpxE9b/zBNQYJYD2sw3Mh2m38/3iv3jj
6U28FUkM+uP/SquAXEh+vkzWG5dBAgMBAAGjDTALMAkGA1UdEwQCMAAwDQYJKoZI
hvcNAQEFBQADgYEAafmrJgFW3ZOY372nHS5VtJnsx5R0fHXUPfngzEjqFEeiMWen
Ym5Q53r69Z343NizN17UvBQuCwsxAbFySTrSCPkZcKrZIEBlbRfdexEk17TL3k+v
YTRA8O2lYr6+Sig2w/WlB/IXbSzwggTBsLSqK3LHkUEuKFPki3tzBVvd5Qs=
-----END CERTIFICATE-----
